target datalayout = "e-m:e-p270:32:32-p271:32:32-p272:64:64-i64:64-i128:128-f80:128-n8:16:32:64-S128"
target triple = "x86_64-pc-linux-gnu"

%struct.UBiDiTransform = type { ptr, ptr, ptr, ptr, i32, i32, i32, ptr, i32, i32, i32 }

; Function Attrs: mustprogress uwtable
define internal noundef signext i8 @_ZL14action_reorderP14UBiDiTransformP10UErrorCode(ptr noundef %0, ptr noundef %1) #0 {
  %3 = alloca ptr, align 8
  %4 = alloca ptr, align 8
  store ptr %0, ptr %3, align 8, !tbaa !7
  store ptr %1, ptr %4, align 8, !tbaa !3
  %5 = load ptr, ptr %3, align 8, !tbaa !7
  %6 = getelementptr inbounds nuw %struct.UBiDiTransform, ptr %5, i32 0, i32 0
  %7 = load ptr, ptr %6, align 8, !tbaa !11
  %8 = load ptr, ptr %3, align 8, !tbaa !7
  %9 = getelementptr inbounds nuw %struct.UBiDiTransform, ptr %8, i32 0, i32 3
  %10 = load ptr, ptr %9, align 8, !tbaa !31
  %11 = load ptr, ptr %3, align 8, !tbaa !7
  %12 = getelementptr inbounds nuw %struct.UBiDiTransform, ptr %11, i32 0, i32 6
  %13 = load i32, ptr %12, align 8, !tbaa !32
  %14 = load ptr, ptr %3, align 8, !tbaa !7
  %15 = getelementptr inbounds nuw %struct.UBiDiTransform, ptr %14, i32 0, i32 8
  %16 = load i32, ptr %15, align 8, !tbaa !28
  %17 = trunc i32 %16 to i16
  %18 = load ptr, ptr %4, align 8, !tbaa !3
  %19 = call i32 @ubidi_writeReordered_77(ptr noundef %7, ptr noundef %10, i32 noundef %13, i16 noundef zeroext %17, ptr noundef %18)
  %20 = load ptr, ptr %3, align 8, !tbaa !7
  %21 = getelementptr inbounds nuw %struct.UBiDiTransform, ptr %20, i32 0, i32 4
  %22 = load i32, ptr %21, align 8, !tbaa !36
  %23 = load ptr, ptr %3, align 8, !tbaa !7
  %24 = getelementptr inbounds nuw %struct.UBiDiTransform, ptr %23, i32 0, i32 7
  %25 = load ptr, ptr %24, align 8, !tbaa !33
  store i32 %22, ptr %25, align 4, !tbaa !19
  %26 = load ptr, ptr %3, align 8, !tbaa !7
  %27 = getelementptr inbounds nuw %struct.UBiDiTransform, ptr %26, i32 0, i32 8
  store i32 0, ptr %27, align 8, !tbaa !28
  ret i8 1
}