; Function Attrs: mustprogress uwtable
define internal noundef signext i8 @_ZL14action_reorderP14UBiDiTransformP10UErrorCode(ptr noundef captures(none) %0, ptr noundef %1) #0 {
  %3 = load ptr, ptr %0, align 8, !tbaa !7
  %4 = getelementptr inbounds nuw i8, ptr %0, i64 24
  %5 = load ptr, ptr %4, align 8, !tbaa !29
  %6 = getelementptr inbounds nuw i8, ptr %0, i64 40
  %7 = load i32, ptr %6, align 8, !tbaa !30
  %8 = getelementptr inbounds nuw i8, ptr %0, i64 56
  %9 = load i32, ptr %8, align 8, !tbaa !26
  %10 = trunc i32 %9 to i16
  %11 = tail call i32 @ubidi_writeReordered_77(ptr noundef %3, ptr noundef %5, i32 noundef %7, i16 noundef zeroext %10, ptr noundef %1)
  %12 = getelementptr inbounds nuw i8, ptr %0, i64 32
  %13 = load i32, ptr %12, align 8, !tbaa !34
  %14 = getelementptr inbounds nuw i8, ptr %0, i64 48
  %15 = load ptr, ptr %14, align 8, !tbaa !31
  store i32 %13, ptr %15, align 4, !tbaa !16
  store i32 0, ptr %8, align 8, !tbaa !26
  ret i8 1
}